target datalayout = "e-m:e-p270:32:32-p271:32:32-p272:64:64-i64:64-i128:128-f80:128-n8:16:32:64-S128"
target triple = "x86_64-pc-linux-gnu"

%struct.WebPDecBuffer = type { i32, i32, i32, i32, %union.anon, [4 x i32], ptr }
%union.anon = type { %struct.WebPYUVABuffer }
%struct.WebPYUVABuffer = type { ptr, ptr, ptr, ptr, i32, i32, i32, i32, i64, i64, i64, i64 }
%struct.WebPRGBABuffer = type { ptr, i32, i64 }

@.str.6 = private unnamed_addr constant [68 x i8] c"P7\0AWIDTH %u\0AHEIGHT %u\0ADEPTH 4\0AMAXVAL 255\0ATUPLTYPE RGB_ALPHA\0AENDHDR\0A\00", align 1
@.str.7 = private unnamed_addr constant [14 x i8] c"P6\0A%u %u\0A255\0A\00", align 1

; Function Attrs: nounwind uwtable
define internal i32 @WritePPMPAM(ptr noundef %0, ptr noundef %1, i32 noundef %2) #0 {
  %4 = alloca i32, align 4
  %5 = alloca ptr, align 8
  %6 = alloca ptr, align 8
  %7 = alloca i32, align 4
  %8 = alloca i32, align 4
  %9 = alloca i32, align 4
  %10 = alloca ptr, align 8
  %11 = alloca i32, align 4
  %12 = alloca i64, align 8
  %13 = alloca i32, align 4
  %14 = alloca i32, align 4
  store ptr %0, ptr %5, align 8, !tbaa !4
  store ptr %1, ptr %6, align 8, !tbaa !9
  store i32 %2, ptr %7, align 4, !tbaa !19
  %15 = load ptr, ptr %5, align 8, !tbaa !4
  %16 = icmp eq ptr %15, null
  br i1 %16, label %20, label %17

17:                                               ; preds = %3
  %18 = load ptr, ptr %6, align 8, !tbaa !9
  %19 = icmp eq ptr %18, null
  br i1 %19, label %20, label %21

20:                                               ; preds = %17, %3
  store i32 0, ptr %4, align 4
  br label %84

21:                                               ; preds = %17
  call void @llvm.lifetime.start.p0(i64 4, ptr %8) #9
  %22 = load ptr, ptr %6, align 8, !tbaa !9
  %23 = getelementptr inbounds nuw %struct.WebPDecBuffer, ptr %22, i32 0, i32 1
  %24 = load i32, ptr %23, align 4, !tbaa !15
  store i32 %24, ptr %8, align 4, !tbaa !19
  call void @llvm.lifetime.start.p0(i64 4, ptr %9) #9
  %25 = load ptr, ptr %6, align 8, !tbaa !9
  %26 = getelementptr inbounds nuw %struct.WebPDecBuffer, ptr %25, i32 0, i32 2
  %27 = load i32, ptr %26, align 8, !tbaa !20
  store i32 %27, ptr %9, align 4, !tbaa !19
  call void @llvm.lifetime.start.p0(i64 8, ptr %10) #9
  %28 = load ptr, ptr %6, align 8, !tbaa !9
  %29 = getelementptr inbounds nuw %struct.WebPDecBuffer, ptr %28, i32 0, i32 4
  %30 = getelementptr inbounds nuw %struct.WebPRGBABuffer, ptr %29, i32 0, i32 0
  %31 = load ptr, ptr %30, align 8, !tbaa !21
  store ptr %31, ptr %10, align 8, !tbaa !22
  call void @llvm.lifetime.start.p0(i64 4, ptr %11) #9
  %32 = load ptr, ptr %6, align 8, !tbaa !9
  %33 = getelementptr inbounds nuw %struct.WebPDecBuffer, ptr %32, i32 0, i32 4
  %34 = getelementptr inbounds nuw %struct.WebPRGBABuffer, ptr %33, i32 0, i32 1
  %35 = load i32, ptr %34, align 8, !tbaa !21
  store i32 %35, ptr %11, align 4, !tbaa !19
  call void @llvm.lifetime.start.p0(i64 8, ptr %12) #9
  %36 = load i32, ptr %7, align 4, !tbaa !19
  %37 = icmp ne i32 %36, 0
  %38 = select i1 %37, i32 4, i32 3
  %39 = sext i32 %38 to i64
  store i64 %39, ptr %12, align 8, !tbaa !26
  call void @llvm.lifetime.start.p0(i64 4, ptr %13) #9
  %40 = load ptr, ptr %10, align 8, !tbaa !22
  %41 = icmp eq ptr %40, null
  br i1 %41, label %42, label %43

42:                                               ; preds = %21
  store i32 0, ptr %4, align 4
  store i32 1, ptr %14, align 4
  br label %80

43:                                               ; preds = %21
  %44 = load i32, ptr %7, align 4, !tbaa !19
  %45 = icmp ne i32 %44, 0
  br i1 %45, label %46, label %51

46:                                               ; preds = %43
  %47 = load ptr, ptr %5, align 8, !tbaa !4
  %48 = load i32, ptr %8, align 4, !tbaa !19
  %49 = load i32, ptr %9, align 4, !tbaa !19
  %50 = call i32 (ptr, ptr, ...) @fprintf(ptr noundef %47, ptr noundef @.str.6, i32 noundef %48, i32 noundef %49) #9
  br label %56

51:                                               ; preds = %43
  %52 = load ptr, ptr %5, align 8, !tbaa !4
  %53 = load i32, ptr %8, align 4, !tbaa !19
  %54 = load i32, ptr %9, align 4, !tbaa !19
  %55 = call i32 (ptr, ptr, ...) @fprintf(ptr noundef %52, ptr noundef @.str.7, i32 noundef %53, i32 noundef %54) #9
  br label %56

56:                                               ; preds = %51, %46
  store i32 0, ptr %13, align 4, !tbaa !19
  br label %57

57:                                               ; preds = %76, %56
  %58 = load i32, ptr %13, align 4, !tbaa !19
  %59 = load i32, ptr %9, align 4, !tbaa !19
  %60 = icmp ult i32 %58, %59
  br i1 %60, label %61, label %79

61:                                               ; preds = %57
  %62 = load ptr, ptr %10, align 8, !tbaa !22
  %63 = load i32, ptr %8, align 4, !tbaa !19
  %64 = zext i32 %63 to i64
  %65 = load i64, ptr %12, align 8, !tbaa !26
  %66 = load ptr, ptr %5, align 8, !tbaa !4
  %67 = call i64 @fwrite(ptr noundef %62, i64 noundef %64, i64 noundef %65, ptr noundef %66)
  %68 = load i64, ptr %12, align 8, !tbaa !26
  %69 = icmp ne i64 %67, %68
  br i1 %69, label %70, label %71

70:                                               ; preds = %61
  store i32 0, ptr %4, align 4
  store i32 1, ptr %14, align 4
  br label %80

71:                                               ; preds = %61
  %72 = load i32, ptr %11, align 4, !tbaa !19
  %73 = load ptr, ptr %10, align 8, !tbaa !22
  %74 = sext i32 %72 to i64
  %75 = getelementptr inbounds i8, ptr %73, i64 %74
  store ptr %75, ptr %10, align 8, !tbaa !22
  br label %76

76:                                               ; preds = %71
  %77 = load i32, ptr %13, align 4, !tbaa !19
  %78 = add i32 %77, 1
  store i32 %78, ptr %13, align 4, !tbaa !19
  br label %57, !llvm.loop !28

79:                                               ; preds = %57
  store i32 0, ptr %14, align 4
  br label %80

80:                                               ; preds = %79, %70, %42
  call void @llvm.lifetime.end.p0(i64 4, ptr %13) #9
  call void @llvm.lifetime.end.p0(i64 8, ptr %12) #9
  call void @llvm.lifetime.end.p0(i64 4, ptr %11) #9
  call void @llvm.lifetime.end.p0(i64 8, ptr %10) #9
  call void @llvm.lifetime.end.p0(i64 4, ptr %9) #9
  call void @llvm.lifetime.end.p0(i64 4, ptr %8) #9
  %81 = load i32, ptr %14, align 4
  switch i32 %81, label %86 [
    i32 0, label %82
    i32 1, label %84
  ]

82:                                               ; preds = %80
  br label %83

83:                                               ; preds = %82
  store i32 1, ptr %4, align 4
  br label %84

84:                                               ; preds = %83, %80, %20
  %85 = load i32, ptr %4, align 4
  ret i32 %85

86:                                               ; preds = %80
  unreachable
}

; Function Attrs: nounwind uwtable
define hidden i32 @WebPWritePAM(ptr noundef %0, ptr noundef %1) #0 {
  %3 = alloca ptr, align 8
  %4 = alloca ptr, align 8
  store ptr %0, ptr %3, align 8, !tbaa !4
  store ptr %1, ptr %4, align 8, !tbaa !9
  %5 = load ptr, ptr %3, align 8, !tbaa !4
  %6 = load ptr, ptr %4, align 8, !tbaa !9
  %7 = call i32 @WritePPMPAM(ptr noundef %5, ptr noundef %6, i32 noundef 1)
  ret i32 %7
}