; Function Attrs: nofree nounwind uwtable
define hidden range(i32 0, 2) i32 @WebPWritePAM(ptr noundef captures(address_is_null) %0, ptr noundef readonly captures(address_is_null) %1) local_unnamed_addr #6 {
  %3 = icmp eq ptr %0, null
  %4 = icmp eq ptr %1, null
  %or.cond.i = or i1 %3, %4
  br i1 %or.cond.i, label %WritePPMPAM.exit, label %5

5:                                                ; preds = %2
  %6 = getelementptr inbounds nuw i8, ptr %1, i64 8
  %7 = load i32, ptr %6, align 8, !tbaa !15
  %8 = getelementptr inbounds nuw i8, ptr %1, i64 16
  %9 = load ptr, ptr %8, align 8, !tbaa !16
  %10 = getelementptr inbounds nuw i8, ptr %1, i64 24
  %11 = load i32, ptr %10, align 8, !tbaa !16
  %12 = icmp eq ptr %9, null
  br i1 %12, label %WritePPMPAM.exit, label %13

13:                                               ; preds = %5
  %14 = getelementptr inbounds nuw i8, ptr %1, i64 4
  %15 = load i32, ptr %14, align 4, !tbaa !11
  %16 = tail call i32 (ptr, ptr, ...) @fprintf(ptr noundef nonnull %0, ptr noundef nonnull @.str.6, i32 noundef %15, i32 noundef %7) #9
  %17 = zext i32 %15 to i64
  %.not40.i = icmp eq i32 %7, 0
  br i1 %.not40.i, label %WritePPMPAM.exit, label %.lr.ph.i

.lr.ph.i:                                         ; preds = %13
  %18 = sext i32 %11 to i64
  br label %19

19:                                               ; preds = %21, %.lr.ph.i
  %.02737.i = phi i32 [ 0, %.lr.ph.i ], [ %23, %21 ]
  %.02936.i = phi ptr [ %9, %.lr.ph.i ], [ %22, %21 ]
  %20 = tail call i64 @fwrite(ptr noundef %.02936.i, i64 noundef %17, i64 noundef 4, ptr noundef nonnull %0)
  %.not33.i = icmp eq i64 %20, 4
  br i1 %.not33.i, label %21, label %WritePPMPAM.exit

21:                                               ; preds = %19
  %22 = getelementptr inbounds i8, ptr %.02936.i, i64 %18
  %23 = add nuw i32 %.02737.i, 1
  %exitcond.not.i = icmp eq i32 %23, %7
  br i1 %exitcond.not.i, label %WritePPMPAM.exit, label %19, !llvm.loop !21

WritePPMPAM.exit:                                 ; preds = %19, %21, %2, %5, %13
  %.028.i = phi i32 [ 0, %2 ], [ 0, %5 ], [ 1, %13 ], [ 0, %19 ], [ 1, %21 ]
  ret i32 %.028.i
}